target datalayout = "e-m:e-p270:32:32-p271:32:32-p272:64:64-i64:64-i128:128-f80:128-n8:16:32:64-S128"
target triple = "x86_64-pc-linux-gnu"

; Function Attrs: mustprogress nounwind uwtable
define hidden noundef i32 @_Z10luaO_str2dPKcPd(ptr noundef %0, ptr noundef %1) #0 {
  %3 = alloca i32, align 4
  %4 = alloca ptr, align 8
  %5 = alloca ptr, align 8
  %6 = alloca ptr, align 8
  %7 = alloca i32, align 4
  store ptr %0, ptr %4, align 8, !tbaa !22
  store ptr %1, ptr %5, align 8, !tbaa !24
  call void @llvm.lifetime.start.p0(i64 8, ptr %6) #9
  %8 = load ptr, ptr %4, align 8, !tbaa !22
  %9 = call double @strtod(ptr noundef %8, ptr noundef %6) #9
  %10 = load ptr, ptr %5, align 8, !tbaa !24
  store double %9, ptr %10, align 8, !tbaa !26
  %11 = load ptr, ptr %6, align 8, !tbaa !22
  %12 = load ptr, ptr %4, align 8, !tbaa !22
  %13 = icmp eq ptr %11, %12
  br i1 %13, label %14, label %15

14:                                               ; preds = %2
  store i32 0, ptr %3, align 4
  store i32 1, ptr %7, align 4
  br label %53

15:                                               ; preds = %2
  %16 = load ptr, ptr %6, align 8, !tbaa !22
  %17 = load i8, ptr %16, align 1, !tbaa !10
  %18 = sext i8 %17 to i32
  %19 = icmp eq i32 %18, 120
  br i1 %19, label %25, label %20

20:                                               ; preds = %15
  %21 = load ptr, ptr %6, align 8, !tbaa !22
  %22 = load i8, ptr %21, align 1, !tbaa !10
  %23 = sext i8 %22 to i32
  %24 = icmp eq i32 %23, 88
  br i1 %24, label %25, label %30

25:                                               ; preds = %20, %15
  %26 = load ptr, ptr %4, align 8, !tbaa !22
  %27 = call i64 @strtoul(ptr noundef %26, ptr noundef %6, i32 noundef 16) #9
  %28 = uitofp i64 %27 to double
  %29 = load ptr, ptr %5, align 8, !tbaa !24
  store double %28, ptr %29, align 8, !tbaa !26
  br label %30

30:                                               ; preds = %25, %20
  %31 = load ptr, ptr %6, align 8, !tbaa !22
  %32 = load i8, ptr %31, align 1, !tbaa !10
  %33 = sext i8 %32 to i32
  %34 = icmp eq i32 %33, 0
  br i1 %34, label %35, label %36

35:                                               ; preds = %30
  store i32 1, ptr %3, align 4
  store i32 1, ptr %7, align 4
  br label %53

36:                                               ; preds = %30
  br label %37

37:                                               ; preds = %43, %36
  %38 = load ptr, ptr %6, align 8, !tbaa !22
  %39 = load i8, ptr %38, align 1, !tbaa !10
  %40 = zext i8 %39 to i32
  %41 = call i32 @isspace(i32 noundef %40) #10
  %42 = icmp ne i32 %41, 0
  br i1 %42, label %43, label %46

43:                                               ; preds = %37
  %44 = load ptr, ptr %6, align 8, !tbaa !22
  %45 = getelementptr inbounds nuw i8, ptr %44, i32 1
  store ptr %45, ptr %6, align 8, !tbaa !22
  br label %37, !llvm.loop !28

46:                                               ; preds = %37
  %47 = load ptr, ptr %6, align 8, !tbaa !22
  %48 = load i8, ptr %47, align 1, !tbaa !10
  %49 = sext i8 %48 to i32
  %50 = icmp ne i32 %49, 0
  br i1 %50, label %51, label %52

51:                                               ; preds = %46
  store i32 0, ptr %3, align 4
  store i32 1, ptr %7, align 4
  br label %53

52:                                               ; preds = %46
  store i32 1, ptr %3, align 4
  store i32 1, ptr %7, align 4
  br label %53

53:                                               ; preds = %52, %51, %35, %14
  call void @llvm.lifetime.end.p0(i64 8, ptr %6) #9
  %54 = load i32, ptr %3, align 4
  ret i32 %54
}