; Function Attrs: mustprogress nofree nounwind uwtable
define hidden noundef range(i32 0, 2) i32 @_Z10luaO_str2dPKcPd(ptr noundef %0, ptr noundef writeonly captures(none) initializes((0, 8)) %1) local_unnamed_addr #3 {
  %3 = alloca ptr, align 8
  call void @llvm.lifetime.start.p0(i64 8, ptr nonnull %3) #15
  %4 = call double @strtod(ptr noundef %0, ptr noundef nonnull %3) #15
  store double %4, ptr %1, align 8, !tbaa !15
  %5 = load ptr, ptr %3, align 8, !tbaa !17
  %6 = icmp eq ptr %5, %0
  br i1 %6, label %21, label %7

7:                                                ; preds = %2
  %8 = load i8, ptr %5, align 1, !tbaa !6
  switch i8 %8, label %12 [
    i8 120, label %9
    i8 88, label %9
  ]

9:                                                ; preds = %7, %7
  %10 = call i64 @strtoul(ptr noundef %0, ptr noundef nonnull %3, i32 noundef 16) #15
  %11 = uitofp i64 %10 to double
  store double %11, ptr %1, align 8, !tbaa !15
  %.pre = load ptr, ptr %3, align 8, !tbaa !17
  %.pre11 = load i8, ptr %.pre, align 1, !tbaa !6
  br label %12

12:                                               ; preds = %7, %9
  %13 = phi i8 [ %8, %7 ], [ %.pre11, %9 ]
  %.promoted = phi ptr [ %5, %7 ], [ %.pre, %9 ]
  %14 = icmp eq i8 %13, 0
  br i1 %14, label %21, label %.preheader

.preheader:                                       ; preds = %12, %.preheader
  %15 = phi ptr [ %19, %.preheader ], [ %.promoted, %12 ]
  %16 = load i8, ptr %15, align 1, !tbaa !6
  %17 = zext i8 %16 to i32
  %18 = tail call i32 @isspace(i32 noundef %17) #16
  %.not = icmp eq i32 %18, 0
  %19 = getelementptr inbounds nuw i8, ptr %15, i64 1
  br i1 %.not, label %20, label %.preheader, !llvm.loop !20

20:                                               ; preds = %.preheader
  %.not8 = icmp eq i8 %16, 0
  %. = zext i1 %.not8 to i32
  br label %21

21:                                               ; preds = %20, %12, %2
  %.0 = phi i32 [ 0, %2 ], [ 1, %12 ], [ %., %20 ]
  call void @llvm.lifetime.end.p0(i64 8, ptr nonnull %3) #15
  ret i32 %.0
}